; ModuleID = '6/2337.c'
source_filename = "6/2337.c"
target datalayout = "e-m:e-p270:32:32-p271:32:32-p272:64:64-i64:64-f80:128-n8:16:32:64-S128"
target triple = "x86_64-pc-linux-gnu"

@.str = private unnamed_addr constant [3 x i8] c"%d\00", align 1
@.str.1 = private unnamed_addr constant [5 x i8] c"%d%d\00", align 1
@.str.2 = private unnamed_addr constant [4 x i8] c"%d\0A\00", align 1

; Function Attrs: noinline nounwind uwtable
define dso_local i32 @main() #0 {
  %1 = alloca i32, align 4
  %2 = alloca i32, align 4
  %3 = alloca i32, align 4
  %4 = alloca i32, align 4
  %5 = alloca [100 x [100 x i32]], align 16
  %6 = alloca i32, align 4
  %7 = alloca i32, align 4
  %8 = alloca i32, align 4
  %9 = alloca i32, align 4
  store i32 0, i32* %1, align 4
  %10 = call i32 (i8*, ...) @__isoc99_scanf(i8* getelementptr inbounds ([3 x i8], [3 x i8]* @.str, i64 0, i64 0), i32* %2)
  store i32 0, i32* %8, align 4
  br label %11

11:                                               ; preds = %134, %0
  %12 = load i32, i32* %8, align 4
  %13 = load i32, i32* %2, align 4
  %14 = icmp slt i32 %12, %13
  br i1 %14, label %15, label %137

15:                                               ; preds = %11
  store i32 0, i32* %9, align 4
  %16 = call i32 (i8*, ...) @__isoc99_scanf(i8* getelementptr inbounds ([5 x i8], [5 x i8]* @.str.1, i64 0, i64 0), i32* %3, i32* %4)
  store i32 0, i32* %6, align 4
  br label %17

17:                                               ; preds = %38, %15
  %18 = load i32, i32* %6, align 4
  %19 = load i32, i32* %3, align 4
  %20 = icmp slt i32 %18, %19
  br i1 %20, label %21, label %41

21:                                               ; preds = %17
  store i32 0, i32* %7, align 4
  br label %22

22:                                               ; preds = %34, %21
  %23 = load i32, i32* %7, align 4
  %24 = load i32, i32* %4, align 4
  %25 = icmp slt i32 %23, %24
  br i1 %25, label %26, label %37

26:                                               ; preds = %22
  %27 = load i32, i32* %6, align 4
  %28 = sext i32 %27 to i64
  %29 = getelementptr inbounds [100 x [100 x i32]], [100 x [100 x i32]]* %5, i64 0, i64 %28
  %30 = load i32, i32* %7, align 4
  %31 = sext i32 %30 to i64
  %32 = getelementptr inbounds [100 x i32], [100 x i32]* %29, i64 0, i64 %31
  %33 = call i32 (i8*, ...) @__isoc99_scanf(i8* getelementptr inbounds ([3 x i8], [3 x i8]* @.str, i64 0, i64 0), i32* %32)
  br label %34

34:                                               ; preds = %26
  %35 = load i32, i32* %7, align 4
  %36 = add nsw i32 %35, 1
  store i32 %36, i32* %7, align 4
  br label %22

37:                                               ; preds = %22
  br label %38

38:                                               ; preds = %37
  %39 = load i32, i32* %6, align 4
  %40 = add nsw i32 %39, 1
  store i32 %40, i32* %6, align 4
  br label %17

41:                                               ; preds = %17
  store i32 0, i32* %6, align 4
  br label %42

42:                                               ; preds = %63, %41
  %43 = load i32, i32* %6, align 4
  %44 = load i32, i32* %3, align 4
  %45 = icmp slt i32 %43, %44
  br i1 %45, label %46, label %66

46:                                               ; preds = %42
  %47 = load i32, i32* %9, align 4
  %48 = load i32, i32* %6, align 4
  %49 = sext i32 %48 to i64
  %50 = getelementptr inbounds [100 x [100 x i32]], [100 x [100 x i32]]* %5, i64 0, i64 %49
  %51 = getelementptr inbounds [100 x i32], [100 x i32]* %50, i64 0, i64 0
  %52 = load i32, i32* %51, align 16
  %53 = add nsw i32 %47, %52
  %54 = load i32, i32* %6, align 4
  %55 = sext i32 %54 to i64
  %56 = getelementptr inbounds [100 x [100 x i32]], [100 x [100 x i32]]* %5, i64 0, i64 %55
  %57 = load i32, i32* %4, align 4
  %58 = sub nsw i32 %57, 1
  %59 = sext i32 %58 to i64
  %60 = getelementptr inbounds [100 x i32], [100 x i32]* %56, i64 0, i64 %59
  %61 = load i32, i32* %60, align 4
  %62 = add nsw i32 %53, %61
  store i32 %62, i32* %9, align 4
  br label %63

63:                                               ; preds = %46
  %64 = load i32, i32* %6, align 4
  %65 = add nsw i32 %64, 1
  store i32 %65, i32* %6, align 4
  br label %42

66:                                               ; preds = %42
  store i32 0, i32* %6, align 4
  br label %67

67:                                               ; preds = %88, %66
  %68 = load i32, i32* %6, align 4
  %69 = load i32, i32* %4, align 4
  %70 = icmp slt i32 %68, %69
  br i1 %70, label %71, label %91

71:                                               ; preds = %67
  %72 = load i32, i32* %9, align 4
  %73 = getelementptr inbounds [100 x [100 x i32]], [100 x [100 x i32]]* %5, i64 0, i64 0
  %74 = load i32, i32* %6, align 4
  %75 = sext i32 %74 to i64
  %76 = getelementptr inbounds [100 x i32], [100 x i32]* %73, i64 0, i64 %75
  %77 = load i32, i32* %76, align 4
  %78 = add nsw i32 %72, %77
  %79 = load i32, i32* %3, align 4
  %80 = sub nsw i32 %79, 1
  %81 = sext i32 %80 to i64
  %82 = getelementptr inbounds [100 x [100 x i32]], [100 x [100 x i32]]* %5, i64 0, i64 %81
  %83 = load i32, i32* %6, align 4
  %84 = sext i32 %83 to i64
  %85 = getelementptr inbounds [100 x i32], [100 x i32]* %82, i64 0, i64 %84
  %86 = load i32, i32* %85, align 4
  %87 = add nsw i32 %78, %86
  store i32 %87, i32* %9, align 4
  br label %88

88:                                               ; preds = %71
  %89 = load i32, i32* %6, align 4
  %90 = add nsw i32 %89, 1
  store i32 %90, i32* %6, align 4
  br label %67

91:                                               ; preds = %67
  %92 = load i32, i32* %9, align 4
  %93 = getelementptr inbounds [100 x [100 x i32]], [100 x [100 x i32]]* %5, i64 0, i64 0
  %94 = getelementptr inbounds [100 x i32], [100 x i32]* %93, i64 0, i64 0
  %95 = load i32, i32* %94, align 16
  %96 = sub nsw i32 %92, %95
  %97 = getelementptr inbounds [100 x [100 x i32]], [100 x [100 x i32]]* %5, i64 0, i64 0
  %98 = load i32, i32* %4, align 4
  %99 = sub nsw i32 %98, 1
  %100 = sext i32 %99 to i64
  %101 = getelementptr inbounds [100 x i32], [100 x i32]* %97, i64 0, i64 %100
  %102 = load i32, i32* %101, align 4
  %103 = sub nsw i32 %96, %102
  %104 = load i32, i32* %3, align 4
  %105 = sub nsw i32 %104, 1
  %106 = sext i32 %105 to i64
  %107 = getelementptr inbounds [100 x [100 x i32]], [100 x [100 x i32]]* %5, i64 0, i64 %106
  %108 = load i32, i32* %4, align 4
  %109 = sub nsw i32 %108, 1
  %110 = sext i32 %109 to i64
  %111 = getelementptr inbounds [100 x i32], [100 x i32]* %107, i64 0, i64 %110
  %112 = load i32, i32* %111, align 4
  %113 = sub nsw i32 %103, %112
  %114 = load i32, i32* %3, align 4
  %115 = sub nsw i32 %114, 1
  %116 = sext i32 %115 to i64
  %117 = getelementptr inbounds [100 x [100 x i32]], [100 x [100 x i32]]* %5, i64 0, i64 %116
  %118 = getelementptr inbounds [100 x i32], [100 x i32]* %117, i64 0, i64 0
  %119 = load i32, i32* %118, align 16
  %120 = sub nsw i32 %113, %119
  store i32 %120, i32* %9, align 4
  %121 = load i32, i32* %3, align 4
  %122 = load i32, i32* %4, align 4
  %123 = icmp eq i32 %121, %122
  br i1 %123, label %124, label %131

124:                                              ; preds = %91
  %125 = load i32, i32* %3, align 4
  %126 = icmp eq i32 %125, 1
  br i1 %126, label %127, label %131

127:                                              ; preds = %124
  %128 = getelementptr inbounds [100 x [100 x i32]], [100 x [100 x i32]]* %5, i64 0, i64 0
  %129 = getelementptr inbounds [100 x i32], [100 x i32]* %128, i64 0, i64 0
  %130 = load i32, i32* %129, align 16
  store i32 %130, i32* %9, align 4
  br label %131

131:                                              ; preds = %127, %124, %91
  %132 = load i32, i32* %9, align 4
  %133 = call i32 (i8*, ...) @printf(i8* getelementptr inbounds ([4 x i8], [4 x i8]* @.str.2, i64 0, i64 0), i32 %132)
  br label %134

134:                                              ; preds = %131
  %135 = load i32, i32* %8, align 4
  %136 = add nsw i32 %135, 1
  store i32 %136, i32* %8, align 4
  br label %11

137:                                              ; preds = %11
  ret i32 0
}

declare dso_local i32 @__isoc99_scanf(i8*, ...) #1

declare dso_local i32 @printf(i8*, ...) #1


!llvm.module.flags = !{!0}
!llvm.ident = !{!1}

!0 = !{i32 1, !"wchar_size", i32 4}
!1 = !{!"clang version 10.0.0-4ubuntu1 "}
